target datalayout = "e-m:e-p270:32:32-p271:32:32-p272:64:64-i64:64-i128:128-f80:128-n8:16:32:64-S128"
target triple = "x86_64-pc-linux-gnu"

@.str = private unnamed_addr constant [15 x i8] c"DIMENSION_LIST\00", align 1
@.str.1 = private unnamed_addr constant [6 x i8] c"CLASS\00", align 1
@.str.2 = private unnamed_addr constant [16 x i8] c"DIMENSION_SCALE\00", align 1
@.str.3 = private unnamed_addr constant [5 x i8] c"NAME\00", align 1

; Function Attrs: nounwind uwtable
define i32 @H5DSset_scale(i64 noundef %0, ptr noundef %1) #0 {
  %3 = alloca i32, align 4
  %4 = alloca i64, align 8
  %5 = alloca ptr, align 8
  %6 = alloca i32, align 4
  %7 = alloca i32, align 4
  %8 = alloca i32, align 4
  store i64 %0, ptr %4, align 8, !tbaa !3
  store ptr %1, ptr %5, align 8, !tbaa !14
  call void @llvm.lifetime.start.p0(i64 4, ptr %6) #10
  call void @llvm.lifetime.start.p0(i64 4, ptr %7) #10
  %9 = load i64, ptr %4, align 8, !tbaa !3
  %10 = call i32 @H5Iget_type(i64 noundef %9)
  store i32 %10, ptr %7, align 4, !tbaa !16
  %11 = icmp slt i32 %10, 0
  br i1 %11, label %12, label %13

12:                                               ; preds = %2
  store i32 -1, ptr %3, align 4
  store i32 1, ptr %8, align 4
  br label %42

13:                                               ; preds = %2
  %14 = load i32, ptr %7, align 4, !tbaa !16
  %15 = icmp ne i32 5, %14
  br i1 %15, label %16, label %17

16:                                               ; preds = %13
  store i32 -1, ptr %3, align 4
  store i32 1, ptr %8, align 4
  br label %42

17:                                               ; preds = %13
  %18 = load i64, ptr %4, align 8, !tbaa !3
  %19 = call i32 @H5Aexists(i64 noundef %18, ptr noundef @.str)
  store i32 %19, ptr %6, align 4, !tbaa !16
  %20 = icmp slt i32 %19, 0
  br i1 %20, label %21, label %22

21:                                               ; preds = %17
  store i32 -1, ptr %3, align 4
  store i32 1, ptr %8, align 4
  br label %42

22:                                               ; preds = %17
  %23 = load i32, ptr %6, align 4, !tbaa !16
  %24 = icmp sgt i32 %23, 0
  br i1 %24, label %25, label %26

25:                                               ; preds = %22
  store i32 -1, ptr %3, align 4
  store i32 1, ptr %8, align 4
  br label %42

26:                                               ; preds = %22
  %27 = load i64, ptr %4, align 8, !tbaa !3
  %28 = call i32 @H5LT_set_attribute_string(i64 noundef %27, ptr noundef @.str.1, ptr noundef @.str.2)
  %29 = icmp slt i32 %28, 0
  br i1 %29, label %30, label %31

30:                                               ; preds = %26
  store i32 -1, ptr %3, align 4
  store i32 1, ptr %8, align 4
  br label %42

31:                                               ; preds = %26
  %32 = load ptr, ptr %5, align 8, !tbaa !14
  %33 = icmp ne ptr %32, null
  br i1 %33, label %34, label %41

34:                                               ; preds = %31
  %35 = load i64, ptr %4, align 8, !tbaa !3
  %36 = load ptr, ptr %5, align 8, !tbaa !14
  %37 = call i32 @H5LT_set_attribute_string(i64 noundef %35, ptr noundef @.str.3, ptr noundef %36)
  %38 = icmp slt i32 %37, 0
  br i1 %38, label %39, label %40

39:                                               ; preds = %34
  store i32 -1, ptr %3, align 4
  store i32 1, ptr %8, align 4
  br label %42

40:                                               ; preds = %34
  br label %41

41:                                               ; preds = %40, %31
  store i32 0, ptr %3, align 4
  store i32 1, ptr %8, align 4
  br label %42

42:                                               ; preds = %41, %39, %30, %25, %21, %16, %12
  call void @llvm.lifetime.end.p0(i64 4, ptr %7) #10
  call void @llvm.lifetime.end.p0(i64 4, ptr %6) #10
  %43 = load i32, ptr %3, align 4
  ret i32 %43
}