; Function Attrs: nounwind uwtable
define range(i32 -1, 1) i32 @H5DSset_scale(i64 noundef %0, ptr noundef %1) local_unnamed_addr #0 {
  %3 = tail call i32 @H5Iget_type(i64 noundef %0) #10
  %.not = icmp eq i32 %3, 5
  br i1 %.not, label %4, label %14

4:                                                ; preds = %2
  %5 = tail call i32 @H5Aexists(i64 noundef %0, ptr noundef nonnull @.str) #10
  %.not11 = icmp eq i32 %5, 0
  br i1 %.not11, label %6, label %14

6:                                                ; preds = %4
  %7 = tail call i32 @H5LT_set_attribute_string(i64 noundef %0, ptr noundef nonnull @.str.1, ptr noundef nonnull @.str.2) #10
  %8 = icmp slt i32 %7, 0
  br i1 %8, label %14, label %9

9:                                                ; preds = %6
  %.not12 = icmp eq ptr %1, null
  br i1 %.not12, label %13, label %10

10:                                               ; preds = %9
  %11 = tail call i32 @H5LT_set_attribute_string(i64 noundef %0, ptr noundef nonnull @.str.3, ptr noundef nonnull %1) #10
  %12 = icmp slt i32 %11, 0
  br i1 %12, label %14, label %13

13:                                               ; preds = %10, %9
  br label %14

14:                                               ; preds = %10, %6, %4, %2, %13
  %.0 = phi i32 [ 0, %13 ], [ -1, %2 ], [ -1, %4 ], [ -1, %6 ], [ -1, %10 ]
  ret i32 %.0
}